; Function Attrs: nofree norecurse nosync nounwind memory(argmem: readwrite) uwtable
define internal void @apply_prof_uni_w_12(ptr noundef writeonly captures(none) %0, i64 noundef %1, ptr noundef readonly captures(none) %2, ptr noundef readonly captures(none) %3, ptr noundef readonly captures(none) %4, i32 noundef %5, i32 noundef %6, i32 noundef %7) #2 {
  %9 = alloca [16 x i16], align 16
  %10 = alloca [16 x i16], align 16
  call void @llvm.lifetime.start.p0(i64 32, ptr nonnull %9) #14
  call void @llvm.lifetime.start.p0(i64 32, ptr nonnull %10) #14
  br label %.preheader.us.i

.preheader.us.i:                                  ; preds = %._crit_edge.us.i, %8
  %.02535.us.i = phi i32 [ %29, %._crit_edge.us.i ], [ 0, %8 ]
  %.02634.us.i = phi ptr [ %28, %._crit_edge.us.i ], [ %2, %8 ]
  %.02733.us.i = phi ptr [ %26, %._crit_edge.us.i ], [ %9, %8 ]
  %.02832.us.i = phi ptr [ %27, %._crit_edge.us.i ], [ %10, %8 ]
  br label %11

11:                                               ; preds = %11, %.preheader.us.i
  %indvars.iv.i = phi i64 [ 0, %.preheader.us.i ], [ %indvars.iv.next.i, %11 ]
  %.02430.us.i = phi ptr [ %.02634.us.i, %.preheader.us.i ], [ %12, %11 ]
  %12 = getelementptr inbounds nuw i8, ptr %.02430.us.i, i64 2
  %13 = load i16, ptr %12, align 2, !tbaa !124
  %14 = ashr i16 %13, 6
  %15 = getelementptr inbounds i8, ptr %.02430.us.i, i64 -2
  %16 = load i16, ptr %15, align 2, !tbaa !124
  %17 = ashr i16 %16, 6
  %narrow.us.i = sub nsw i16 %14, %17
  %18 = getelementptr inbounds nuw i16, ptr %.02733.us.i, i64 %indvars.iv.i
  store i16 %narrow.us.i, ptr %18, align 2, !tbaa !124
  %19 = getelementptr inbounds nuw i8, ptr %.02430.us.i, i64 256
  %20 = load i16, ptr %19, align 2, !tbaa !124
  %21 = ashr i16 %20, 6
  %22 = getelementptr inbounds i8, ptr %.02430.us.i, i64 -256
  %23 = load i16, ptr %22, align 2, !tbaa !124
  %24 = ashr i16 %23, 6
  %narrow29.us.i = sub nsw i16 %21, %24
  %25 = getelementptr inbounds nuw i16, ptr %.02832.us.i, i64 %indvars.iv.i
  store i16 %narrow29.us.i, ptr %25, align 2, !tbaa !124
  %indvars.iv.next.i = add nuw nsw i64 %indvars.iv.i, 1
  %exitcond.not.i = icmp eq i64 %indvars.iv.next.i, 4
  br i1 %exitcond.not.i, label %._crit_edge.us.i, label %11, !llvm.loop !208

._crit_edge.us.i:                                 ; preds = %11
  %26 = getelementptr inbounds nuw i8, ptr %.02733.us.i, i64 8
  %27 = getelementptr inbounds nuw i8, ptr %.02832.us.i, i64 8
  %28 = getelementptr inbounds nuw i8, ptr %.02634.us.i, i64 256
  %29 = add nuw nsw i32 %.02535.us.i, 1
  %exitcond39.not.i = icmp eq i32 %29, 4
  br i1 %exitcond39.not.i, label %.preheader.preheader, label %.preheader.us.i, !llvm.loop !209

.preheader.preheader:                             ; preds = %._crit_edge.us.i
  %30 = lshr i64 %1, 1
  %31 = add nsw i32 %5, 2
  %32 = add nsw i32 %5, 1
  %33 = shl nuw i32 1, %32
  %34 = shl nsw i32 %7, 4
  br label %.preheader

.preheader:                                       ; preds = %.preheader.preheader, %prof_grad_filter_12.exit
  %indvars.iv39 = phi i64 [ 0, %.preheader.preheader ], [ %indvars.iv.next40, %prof_grad_filter_12.exit ]
  %.037 = phi ptr [ %2, %.preheader.preheader ], [ %37, %prof_grad_filter_12.exit ]
  %.03036 = phi ptr [ %0, %.preheader.preheader ], [ %38, %prof_grad_filter_12.exit ]
  %35 = shl nuw nsw i64 %indvars.iv39, 2
  br label %39

36:                                               ; preds = %prof_grad_filter_12.exit
  call void @llvm.lifetime.end.p0(i64 32, ptr nonnull %10) #14
  call void @llvm.lifetime.end.p0(i64 32, ptr nonnull %9) #14
  ret void

prof_grad_filter_12.exit:                         ; preds = %39
  %37 = getelementptr inbounds nuw i8, ptr %.037, i64 256
  %38 = getelementptr inbounds nuw i16, ptr %.03036, i64 %30
  %indvars.iv.next40 = add nuw nsw i64 %indvars.iv39, 1
  %exitcond42.not = icmp eq i64 %indvars.iv.next40, 4
  br i1 %exitcond42.not, label %36, label %.preheader, !llvm.loop !214

39:                                               ; preds = %.preheader, %39
  %indvars.iv = phi i64 [ 0, %.preheader ], [ %indvars.iv.next, %39 ]
  %40 = add nuw nsw i64 %indvars.iv, %35
  %41 = getelementptr inbounds nuw [16 x i16], ptr %9, i64 0, i64 %40
  %42 = load i16, ptr %41, align 2, !tbaa !124
  %43 = sext i16 %42 to i32
  %44 = getelementptr inbounds nuw i16, ptr %3, i64 %40
  %45 = load i16, ptr %44, align 2, !tbaa !124
  %46 = sext i16 %45 to i32
  %47 = mul nsw i32 %46, %43
  %48 = getelementptr inbounds nuw [16 x i16], ptr %10, i64 0, i64 %40
  %49 = load i16, ptr %48, align 2, !tbaa !124
  %50 = sext i16 %49 to i32
  %51 = getelementptr inbounds nuw i16, ptr %4, i64 %40
  %52 = load i16, ptr %51, align 2, !tbaa !124
  %53 = sext i16 %52 to i32
  %54 = mul nsw i32 %53, %50
  %55 = add nsw i32 %54, %47
  %56 = getelementptr inbounds nuw i16, ptr %.037, i64 %indvars.iv
  %57 = load i16, ptr %56, align 2, !tbaa !124
  %58 = sext i16 %57 to i32
  %59 = tail call i32 @llvm.smax.i32(i32 %55, i32 -8192)
  %.0.i33 = tail call i32 @llvm.smin.i32(i32 %59, i32 8191)
  %60 = add nsw i32 %.0.i33, %58
  %61 = mul nsw i32 %60, %6
  %62 = add nsw i32 %61, %33
  %63 = ashr i32 %62, %31
  %64 = add nsw i32 %63, %34
  %65 = tail call i32 @llvm.smax.i32(i32 %64, i32 0)
  %66 = tail call i32 @llvm.umin.i32(i32 %65, i32 4095)
  %67 = trunc nuw nsw i32 %66 to i16
  %68 = getelementptr inbounds nuw i16, ptr %.03036, i64 %indvars.iv
  store i16 %67, ptr %68, align 2, !tbaa !124
  %indvars.iv.next = add nuw nsw i64 %indvars.iv, 1
  %exitcond.not = icmp eq i64 %indvars.iv.next, 4
  br i1 %exitcond.not, label %prof_grad_filter_12.exit, label %39, !llvm.loop !215
}